target datalayout = "e-m:e-p270:32:32-p271:32:32-p272:64:64-i64:64-i128:128-f80:128-n8:16:32:64-S128"
target triple = "x86_64-pc-linux-gnu"

%struct.Par_ThData_t_ = type { ptr, i32, i32, i32, i32, i32 }

; Function Attrs: nounwind uwtable
define void @Cec_GiaInitThreads(ptr noundef %0, i32 noundef %1, ptr noundef %2, i32 noundef %3, i32 noundef %4, ptr noundef %5) #0 {
  %7 = alloca ptr, align 8
  %8 = alloca i32, align 4
  %9 = alloca ptr, align 8
  %10 = alloca i32, align 4
  %11 = alloca i32, align 4
  %12 = alloca ptr, align 8
  %13 = alloca i32, align 4
  %14 = alloca i32, align 4
  store ptr %0, ptr %7, align 8, !tbaa !74
  store i32 %1, ptr %8, align 4, !tbaa !8
  store ptr %2, ptr %9, align 8, !tbaa !3
  store i32 %3, ptr %10, align 4, !tbaa !8
  store i32 %4, ptr %11, align 4, !tbaa !8
  store ptr %5, ptr %12, align 8, !tbaa !86
  call void @llvm.lifetime.start.p0(i64 4, ptr %13) #9
  call void @llvm.lifetime.start.p0(i64 4, ptr %14) #9
  store i32 0, ptr %13, align 4, !tbaa !8
  br label %15

15:                                               ; preds = %68, %6
  %16 = load i32, ptr %13, align 4, !tbaa !8
  %17 = load i32, ptr %8, align 4, !tbaa !8
  %18 = icmp slt i32 %16, %17
  br i1 %18, label %19, label %71

19:                                               ; preds = %15
  %20 = load ptr, ptr %9, align 8, !tbaa !3
  %21 = call ptr @Gia_ManDup(ptr noundef %20)
  %22 = load ptr, ptr %7, align 8, !tbaa !74
  %23 = load i32, ptr %13, align 4, !tbaa !8
  %24 = sext i32 %23 to i64
  %25 = getelementptr inbounds %struct.Par_ThData_t_, ptr %22, i64 %24
  %26 = getelementptr inbounds nuw %struct.Par_ThData_t_, ptr %25, i32 0, i32 0
  store ptr %21, ptr %26, align 8, !tbaa !79
  %27 = load i32, ptr %13, align 4, !tbaa !8
  %28 = load ptr, ptr %7, align 8, !tbaa !74
  %29 = load i32, ptr %13, align 4, !tbaa !8
  %30 = sext i32 %29 to i64
  %31 = getelementptr inbounds %struct.Par_ThData_t_, ptr %28, i64 %30
  %32 = getelementptr inbounds nuw %struct.Par_ThData_t_, ptr %31, i32 0, i32 1
  store i32 %27, ptr %32, align 8, !tbaa !81
  %33 = load i32, ptr %10, align 4, !tbaa !8
  %34 = load ptr, ptr %7, align 8, !tbaa !74
  %35 = load i32, ptr %13, align 4, !tbaa !8
  %36 = sext i32 %35 to i64
  %37 = getelementptr inbounds %struct.Par_ThData_t_, ptr %34, i64 %36
  %38 = getelementptr inbounds nuw %struct.Par_ThData_t_, ptr %37, i32 0, i32 3
  store i32 %33, ptr %38, align 8, !tbaa !82
  %39 = load ptr, ptr %7, align 8, !tbaa !74
  %40 = load i32, ptr %13, align 4, !tbaa !8
  %41 = sext i32 %40 to i64
  %42 = getelementptr inbounds %struct.Par_ThData_t_, ptr %39, i64 %41
  %43 = getelementptr inbounds nuw %struct.Par_ThData_t_, ptr %42, i32 0, i32 2
  store i32 0, ptr %43, align 4, !tbaa !85
  %44 = load ptr, ptr %7, align 8, !tbaa !74
  %45 = load i32, ptr %13, align 4, !tbaa !8
  %46 = sext i32 %45 to i64
  %47 = getelementptr inbounds %struct.Par_ThData_t_, ptr %44, i64 %46
  %48 = getelementptr inbounds nuw %struct.Par_ThData_t_, ptr %47, i32 0, i32 4
  store i32 -1, ptr %48, align 4, !tbaa !84
  %49 = load i32, ptr %11, align 4, !tbaa !8
  %50 = load ptr, ptr %7, align 8, !tbaa !74
  %51 = load i32, ptr %13, align 4, !tbaa !8
  %52 = sext i32 %51 to i64
  %53 = getelementptr inbounds %struct.Par_ThData_t_, ptr %50, i64 %52
  %54 = getelementptr inbounds nuw %struct.Par_ThData_t_, ptr %53, i32 0, i32 5
  store i32 %49, ptr %54, align 8, !tbaa !83
  %55 = load ptr, ptr %12, align 8, !tbaa !86
  %56 = icmp ne ptr %55, null
  br i1 %56, label %58, label %57

57:                                               ; preds = %19
  br label %68

58:                                               ; preds = %19
  %59 = load ptr, ptr %12, align 8, !tbaa !86
  %60 = load i32, ptr %13, align 4, !tbaa !8
  %61 = sext i32 %60 to i64
  %62 = getelementptr inbounds i64, ptr %59, i64 %61
  %63 = load ptr, ptr %7, align 8, !tbaa !74
  %64 = load i32, ptr %13, align 4, !tbaa !8
  %65 = sext i32 %64 to i64
  %66 = getelementptr inbounds %struct.Par_ThData_t_, ptr %63, i64 %65
  %67 = call i32 @pthread_create(ptr noundef %62, ptr noundef null, ptr noundef @Cec_GiaProveWorkerThread, ptr noundef %66) #9
  store i32 %67, ptr %14, align 4, !tbaa !8
  br label %68

68:                                               ; preds = %58, %57
  %69 = load i32, ptr %13, align 4, !tbaa !8
  %70 = add nsw i32 %69, 1
  store i32 %70, ptr %13, align 4, !tbaa !8
  br label %15, !llvm.loop !88

71:                                               ; preds = %15
  store i32 0, ptr %13, align 4, !tbaa !8
  br label %72

72:                                               ; preds = %82, %71
  %73 = load i32, ptr %13, align 4, !tbaa !8
  %74 = load i32, ptr %8, align 4, !tbaa !8
  %75 = icmp slt i32 %73, %74
  br i1 %75, label %76, label %85

76:                                               ; preds = %72
  %77 = load ptr, ptr %7, align 8, !tbaa !74
  %78 = load i32, ptr %13, align 4, !tbaa !8
  %79 = sext i32 %78 to i64
  %80 = getelementptr inbounds %struct.Par_ThData_t_, ptr %77, i64 %79
  %81 = getelementptr inbounds nuw %struct.Par_ThData_t_, ptr %80, i32 0, i32 2
  store i32 1, ptr %81, align 4, !tbaa !85
  br label %82

82:                                               ; preds = %76
  %83 = load i32, ptr %13, align 4, !tbaa !8
  %84 = add nsw i32 %83, 1
  store i32 %84, ptr %13, align 4, !tbaa !8
  br label %72, !llvm.loop !89

85:                                               ; preds = %72
  call void @llvm.lifetime.end.p0(i64 4, ptr %14) #9
  call void @llvm.lifetime.end.p0(i64 4, ptr %13) #9
  ret void
}