; Function Attrs: nounwind uwtable
define void @Cec_GiaInitThreads(ptr noundef %0, i32 noundef %1, ptr noundef %2, i32 noundef %3, i32 noundef %4, ptr noundef %5) local_unnamed_addr #0 {
  %7 = icmp sgt i32 %1, 0
  br i1 %7, label %.lr.ph, label %._crit_edge

.lr.ph:                                           ; preds = %6
  %.not = icmp eq ptr %5, null
  %wide.trip.count38 = zext nneg i32 %1 to i64
  br i1 %.not, label %.lr.ph.split.us, label %.lr.ph.split

.lr.ph.split.us:                                  ; preds = %.lr.ph, %.lr.ph.split.us
  %indvars.iv35 = phi i64 [ %indvars.iv.next36, %.lr.ph.split.us ], [ 0, %.lr.ph ]
  %8 = tail call ptr @Gia_ManDup(ptr noundef %2) #13
  %9 = getelementptr inbounds nuw %struct.Par_ThData_t_, ptr %0, i64 %indvars.iv35
  store ptr %8, ptr %9, align 8, !tbaa !62
  %10 = getelementptr inbounds nuw i8, ptr %9, i64 8
  %11 = trunc nuw nsw i64 %indvars.iv35 to i32
  store i32 %11, ptr %10, align 8, !tbaa !64
  %12 = getelementptr inbounds nuw i8, ptr %9, i64 16
  store i32 %3, ptr %12, align 8, !tbaa !65
  %13 = getelementptr inbounds nuw i8, ptr %9, i64 12
  store i32 0, ptr %13, align 4, !tbaa !68
  %14 = getelementptr inbounds nuw i8, ptr %9, i64 20
  store i32 -1, ptr %14, align 4, !tbaa !67
  %15 = getelementptr inbounds nuw i8, ptr %9, i64 24
  store i32 %4, ptr %15, align 8, !tbaa !66
  %indvars.iv.next36 = add nuw nsw i64 %indvars.iv35, 1
  %exitcond39.not = icmp eq i64 %indvars.iv.next36, %wide.trip.count38
  br i1 %exitcond39.not, label %.lr.ph32.preheader, label %.lr.ph.split.us, !llvm.loop !69

.lr.ph32.preheader:                               ; preds = %.lr.ph.split, %.lr.ph.split.us
  %wide.trip.count43 = zext nneg i32 %1 to i64
  br label %.lr.ph32

.lr.ph.split:                                     ; preds = %.lr.ph, %.lr.ph.split
  %indvars.iv = phi i64 [ %indvars.iv.next, %.lr.ph.split ], [ 0, %.lr.ph ]
  %16 = tail call ptr @Gia_ManDup(ptr noundef %2) #13
  %17 = getelementptr inbounds nuw %struct.Par_ThData_t_, ptr %0, i64 %indvars.iv
  store ptr %16, ptr %17, align 8, !tbaa !62
  %18 = getelementptr inbounds nuw i8, ptr %17, i64 8
  %19 = trunc nuw nsw i64 %indvars.iv to i32
  store i32 %19, ptr %18, align 8, !tbaa !64
  %20 = getelementptr inbounds nuw i8, ptr %17, i64 16
  store i32 %3, ptr %20, align 8, !tbaa !65
  %21 = getelementptr inbounds nuw i8, ptr %17, i64 12
  store i32 0, ptr %21, align 4, !tbaa !68
  %22 = getelementptr inbounds nuw i8, ptr %17, i64 20
  store i32 -1, ptr %22, align 4, !tbaa !67
  %23 = getelementptr inbounds nuw i8, ptr %17, i64 24
  store i32 %4, ptr %23, align 8, !tbaa !66
  %24 = getelementptr inbounds nuw i64, ptr %5, i64 %indvars.iv
  %25 = tail call i32 @pthread_create(ptr noundef nonnull %24, ptr noundef null, ptr noundef nonnull @Cec_GiaProveWorkerThread, ptr noundef nonnull %17) #13
  %indvars.iv.next = add nuw nsw i64 %indvars.iv, 1
  %exitcond.not = icmp eq i64 %indvars.iv.next, %wide.trip.count38
  br i1 %exitcond.not, label %.lr.ph32.preheader, label %.lr.ph.split, !llvm.loop !69

.lr.ph32:                                         ; preds = %.lr.ph32.preheader, %.lr.ph32
  %indvars.iv40 = phi i64 [ 0, %.lr.ph32.preheader ], [ %indvars.iv.next41, %.lr.ph32 ]
  %26 = getelementptr inbounds nuw %struct.Par_ThData_t_, ptr %0, i64 %indvars.iv40, i32 2
  store i32 1, ptr %26, align 4, !tbaa !68
  %indvars.iv.next41 = add nuw nsw i64 %indvars.iv40, 1
  %exitcond44.not = icmp eq i64 %indvars.iv.next41, %wide.trip.count43
  br i1 %exitcond44.not, label %._crit_edge, label %.lr.ph32, !llvm.loop !70

._crit_edge:                                      ; preds = %.lr.ph32, %6
  ret void
}